Certificate:
    Data:
        Version: 1 (0x0)
        Serial Number: 0 (0x0)
        Signature Algorithm: md5WithRSAEncryption
        Issuer: C=GB, O=Example, OU=Root Certification Authority, CN=Example Root CA/emailAddress=example@rootca.com
        Validity
            Not Before: Apr  4 14:02:41 2005 GMT
            Not After : Apr  4 14:02:41 2006 GMT
        Subject: CN=John Doe, C=GB/emailAddress=example@rootca.com
        Subject Public Key Info:
            Public Key Algorithm: rsaEncryption
            RSA Public Key: (2048 bit)
                Modulus (2048 bit):
                    00:e3:d6:0b:a5:e3:ce:24:06:40:f7:2b:ec:dd:d7:
                    e3:be:a0:11:1e:97:4b:9e:6f:b2:a0:82:3d:15:e2:
                    36:2b:d8:a3:f2:d9:78:9d:d1:9d:82:e7:08:24:e9:
                    4a:74:f9:c4:22:51:07:f9:6a:68:63:11:dd:f5:25:
                    bf:71:4a:c4:92:4a:2a:bf:e4:4c:e8:a7:63:99:83:
                    70:b9:a2:5e:90:eb:1b:e5:e8:cb:92:0f:f5:99:bc:
                    20:f1:db:96:18:83:24:6b:a7:ac:d6:77:9d:99:c7:
                    8b:ab:ed:c2:c4:f8:bf:f3:94:eb:53:0d:ed:c5:84:
                    65:fe:7b:3b:2a:e6:64:9a:2e:89:48:4d:94:c3:50:
                    d8:f2:16:73:66:37:21:9e:15:ef:dc:a9:7c:aa:ed:
                    53:fc:45:f1:28:cf:01:4d:fd:a9:8c:31:3c:c7:1b:
                    06:da:a9:bd:9d:af:b3:17:38:df:9b:41:31:f0:94:
                    9c:56:7f:2e:8b:27:1a:11:ce:01:c8:d1:2d:c8:a1:
                    3c:6e:12:dd:2b:83:d0:d8:bc:35:27:6d:55:cc:ab:
                    7a:55:f3:3c:5b:8c:35:93:5e:58:cb:de:2c:28:6f:
                    34:d0:59:9c:0c:cf:cb:4f:64:5e:19:20:88:a4:9f:
                    8f:3d:8e:08:68:23:9e:b8:57:4a:d7:02:d5:db:0e:
                    1e:89
                Exponent: 65537 (0x10001)
    Signature Algorithm: md5WithRSAEncryption
        1d:38:f0:31:ee:bb:8f:95:d8:f9:a0:40:21:33:fb:98:c6:bd:
        97:48:9f:04:ab:e4:fe:67:83:72:15:ec:53:f7:fc:f4:dc:89:
        ef:13:6c:fd:2f:fe:c8:97:d8:3d:c5:8a:79:56:44:f3:a6:47:
        e7:d8:1a:a2:bd:88:4e:9f:f2:97:89:71:4e:3c:dd:88:e3:fd:
        d2:a9:c7:0d:f8:5b:c6:01:6c:58:02:fd:92:bf:e3:37:c8:57:
        9a:c9:36:01:e0:97:48:6e:91:85:5f:99:69:be:58:58:32:eb:
        29:f9:2d:86:2a:b4:d3:6b:81:53:21:ca:b8:4f:6f:07:20:f4:
        5a:27:bb:d7:ca:a5:d4:5c:fd:ce:69:2e:3f:3b:13:b2:4f:2e:
        71:79:c6:e7:54:c0:07:20:ac:47:db:ee:87:d9:50:27:9e:a2:
        e2:ce:d6:71:33:c0:71:4d:24:a3:68:50:f5:52:17:49:dd:f0:
        21:94:1b:e8:19:c2:46:e0:48:ed:6a:36:08:4a:ae:25:e4:92:
        03:3e:30:2d:3e:c0:98:2c:79:79:95:7c:1b:cd:5f:b2:ef:1b:
        be:4a:98:88:26:2d:60:b3:ac:69:4c:28:5c:6b:0e:4b:69:91:
        b3:04:7a:d5:b0:1c:ab:70:95:a2:95:bd:d9:b0:2e:b9:21:e5:
        05:ff:03:da
-----BEGIN CERTIFICATE-----
MIIDOzCCAiMCAQAwDQYJKoZIhvcNAQEEBQAwgYMxCzAJBgNVBAYTAkdCMRAwDgYD
VQQKEwdFeGFtcGxlMSUwIwYDVQQLExxSb290IENlcnRpZmljYXRpb24gQXV0aG9y
aXR5MRgwFgYDVQQDEw9FeGFtcGxlIFJvb3QgQ0ExITAfBgkqhkiG9w0BCQEWEmV4
YW1wbGVAcm9vdGNhLmNvbTAeFw0wNTA0MDQxNDAyNDFaFw0wNjA0MDQxNDAyNDFa
MEMxETAPBgNVBAMTCEpvaG4gRG9lMQswCQYDVQQGEwJHQjEhMB8GCSqGSIb3DQEJ
ARYSZXhhbXBsZUByb290Y2EuY29tMIIBIjANBgkqhkiG9w0BAQEFAAOCAQ8AMIIB
CgKCAQEA49YLpePOJAZA9yvs3dfjvqARHpdLnm+yoII9FeI2K9ij8tl4ndGdgucI
JOlKdPnEIlEH+WpoYxHd9SW/cUrEkkoqv+RM6KdjmYNwuaJekOsb5ejLkg/1mbwg
8duWGIMka6es1nedmceLq+3CxPi/85TrUw3txYRl/ns7KuZkmi6JSE2Uw1DY8hZz
ZjchnhXv3Kl8qu1T/EXxKM8BTf2pjDE8xxsG2qm9na+zFzjfm0Ex8JScVn8uiyca
Ec4ByNEtyKE8bhLdK4PQ2Lw1J21VzKt6VfM8W4w1k15Yy94sKG800FmcDM/LT2Re
GSCIpJ+PPY4IaCOeuFdK1wLV2w4eiQIDAQABMA0GCSqGSIb3DQEBBAUAA4IBAQAd
OPAx7ruPldj5oEAhM/uYxr2XSJ8Eq+T+Z4NyFexT9/z03InvE2z9L/7Il9g9xYp5
VkTzpkfn2BqivYhOn/KXiXFOPN2I4/3SqccN+FvGAWxYAv2Sv+M3yFeayTYB4JdI
bpGFX5lpvlhYMusp+S2GKrTTa4FTIcq4T28HIPRaJ7vXyqXUXP3OaS4/OxOyTy5x
ecbnVMAHIKxH2+6H2VAnnqLiztZxM8BxTSSjaFD1UhdJ3fAhlBvoGcJG4EjtajYI
Sq4l5JIDPjAtPsCYLHl5lXwbzV+y7xu+SpiIJi1gs6xpTChcaw5LaZGzBHrVsByr
cJWilb3ZsC65IeUF/wPa
-----END CERTIFICATE-----
